; Function Attrs: mustprogress uwtable
define void @_ZN6icu_756number20NumberRangeFormatter4withEv(ptr noalias sret(%"class.icu_75::number::UnlocalizedNumberRangeFormatter") align 8 %agg.result) local_unnamed_addr #1 align 2 personality ptr @__gxx_personality_v0 {
entry:
  %formatter1.i.i.i = getelementptr inbounds i8, ptr %agg.result, i64 8
  tail call void @_ZN6icu_756number4impl10MacroPropsC2Ev(ptr noundef nonnull align 8 dereferenceable(472) %formatter1.i.i.i)
  %formatter2.i.i.i = getelementptr inbounds i8, ptr %agg.result, i64 488
  invoke void @_ZN6icu_756number4impl10MacroPropsC2Ev(ptr noundef nonnull align 8 dereferenceable(472) %formatter2.i.i.i)
          to label %invoke.cont.i.i.i unwind label %lpad.i.i.i

invoke.cont.i.i.i:                                ; preds = %entry
  %singleFormatter.i.i.i = getelementptr inbounds i8, ptr %agg.result, i64 968
  store i8 1, ptr %singleFormatter.i.i.i, align 8
  %collapse.i.i.i = getelementptr inbounds i8, ptr %agg.result, i64 972
  store i32 0, ptr %collapse.i.i.i, align 4
  %identityFallback.i.i.i = getelementptr inbounds i8, ptr %agg.result, i64 976
  store i32 2, ptr %identityFallback.i.i.i, align 8
  %locale.i.i.i = getelementptr inbounds i8, ptr %agg.result, i64 984
  invoke void @_ZN6icu_756LocaleC1Ev(ptr noundef nonnull align 8 dereferenceable(217) %locale.i.i.i)
          to label %_ZN6icu_756number31UnlocalizedNumberRangeFormatterC2Ev.exit unwind label %lpad2.i.i.i

lpad.i.i.i:                                       ; preds = %entry
  %0 = landingpad { ptr, i32 }
          cleanup
  br label %ehcleanup.i.i.i

lpad2.i.i.i:                                      ; preds = %invoke.cont.i.i.i
  %1 = landingpad { ptr, i32 }
          cleanup
  tail call void @_ZN6icu_756number26UnlocalizedNumberFormatterD2Ev(ptr noundef nonnull align 8 dereferenceable(473) %formatter2.i.i.i) #10
  br label %ehcleanup.i.i.i

ehcleanup.i.i.i:                                  ; preds = %lpad2.i.i.i, %lpad.i.i.i
  %.pn.i.i.i = phi { ptr, i32 } [ %1, %lpad2.i.i.i ], [ %0, %lpad.i.i.i ]
  tail call void @_ZN6icu_756number26UnlocalizedNumberFormatterD2Ev(ptr noundef nonnull align 8 dereferenceable(473) %formatter1.i.i.i) #10
  resume { ptr, i32 } %.pn.i.i.i

_ZN6icu_756number31UnlocalizedNumberRangeFormatterC2Ev.exit: ; preds = %invoke.cont.i.i.i
  ret void
}